; Function Attrs: nounwind uwtable
define ptr @l_Array_anyMUnsafe_any___at___private_Lean_Meta_Tactic_Grind_EMatch_0__Lean_Meta_Grind_EMatch_instantiateTheorem___spec__7___boxed(ptr noundef %0, ptr noundef %1, ptr noundef %2, ptr noundef %3, ptr noundef %4, ptr noundef %5, ptr noundef %6, ptr noundef %7, ptr noundef %8, ptr noundef %9, ptr noundef %10, ptr noundef %11, ptr noundef %12, ptr noundef %13) local_unnamed_addr #0 {
  %15 = getelementptr i8, ptr %1, i64 8
  %.val65 = load i64, ptr %15, align 8, !tbaa !12
  %16 = ptrtoint ptr %1 to i64
  %17 = and i64 %16, 1
  %.not = icmp eq i64 %17, 0
  br i1 %.not, label %18, label %lean_dec.exit40

18:                                               ; preds = %14
  %19 = load i32, ptr %1, align 4, !tbaa !8
  %20 = icmp sgt i32 %19, 1
  br i1 %20, label %21, label %23, !prof !11

21:                                               ; preds = %18
  %22 = add nsw i32 %19, -1
  store i32 %22, ptr %1, align 4, !tbaa !8
  br label %lean_dec.exit40

23:                                               ; preds = %18
  %.not.i = icmp eq i32 %19, 0
  br i1 %.not.i, label %lean_dec.exit40, label %24

24:                                               ; preds = %23
  tail call void @lean_dec_ref_cold(ptr noundef nonnull %1) #5
  br label %lean_dec.exit40

lean_dec.exit40:                                  ; preds = %24, %23, %21, %14
  %25 = getelementptr i8, ptr %2, i64 8
  %.val = load i64, ptr %25, align 8, !tbaa !12
  %26 = ptrtoint ptr %2 to i64
  %27 = and i64 %26, 1
  %.not66 = icmp eq i64 %27, 0
  br i1 %.not66, label %28, label %lean_dec.exit39

28:                                               ; preds = %lean_dec.exit40
  %29 = load i32, ptr %2, align 4, !tbaa !8
  %30 = icmp sgt i32 %29, 1
  br i1 %30, label %31, label %33, !prof !11

31:                                               ; preds = %28
  %32 = add nsw i32 %29, -1
  store i32 %32, ptr %2, align 4, !tbaa !8
  br label %lean_dec.exit39

33:                                               ; preds = %28
  %.not.i41 = icmp eq i32 %29, 0
  br i1 %.not.i41, label %lean_dec.exit39, label %34

34:                                               ; preds = %33
  tail call void @lean_dec_ref_cold(ptr noundef nonnull %2) #5
  br label %lean_dec.exit39

lean_dec.exit39:                                  ; preds = %34, %33, %31, %lean_dec.exit40
  %35 = tail call ptr @l_Array_anyMUnsafe_any___at___private_Lean_Meta_Tactic_Grind_EMatch_0__Lean_Meta_Grind_EMatch_instantiateTheorem___spec__7(ptr noundef %0, i64 noundef %.val65, i64 noundef %.val, ptr poison, ptr poison, ptr poison, ptr poison, ptr poison, ptr poison, ptr poison, ptr noundef %10, ptr poison, ptr poison, ptr noundef %13)
  %36 = ptrtoint ptr %12 to i64
  %37 = and i64 %36, 1
  %.not67 = icmp eq i64 %37, 0
  br i1 %.not67, label %38, label %lean_dec.exit38

38:                                               ; preds = %lean_dec.exit39
  %39 = load i32, ptr %12, align 4, !tbaa !8
  %40 = icmp sgt i32 %39, 1
  br i1 %40, label %41, label %43, !prof !11

41:                                               ; preds = %38
  %42 = add nsw i32 %39, -1
  store i32 %42, ptr %12, align 4, !tbaa !8
  br label %lean_dec.exit38

43:                                               ; preds = %38
  %.not.i43 = icmp eq i32 %39, 0
  br i1 %.not.i43, label %lean_dec.exit38, label %44

44:                                               ; preds = %43
  tail call void @lean_dec_ref_cold(ptr noundef nonnull %12) #5
  br label %lean_dec.exit38

lean_dec.exit38:                                  ; preds = %44, %43, %41, %lean_dec.exit39
  %45 = ptrtoint ptr %11 to i64
  %46 = and i64 %45, 1
  %.not68 = icmp eq i64 %46, 0
  br i1 %.not68, label %47, label %lean_dec.exit37

47:                                               ; preds = %lean_dec.exit38
  %48 = load i32, ptr %11, align 4, !tbaa !8
  %49 = icmp sgt i32 %48, 1
  br i1 %49, label %50, label %52, !prof !11

50:                                               ; preds = %47
  %51 = add nsw i32 %48, -1
  store i32 %51, ptr %11, align 4, !tbaa !8
  br label %lean_dec.exit37

52:                                               ; preds = %47
  %.not.i45 = icmp eq i32 %48, 0
  br i1 %.not.i45, label %lean_dec.exit37, label %53

53:                                               ; preds = %52
  tail call void @lean_dec_ref_cold(ptr noundef nonnull %11) #5
  br label %lean_dec.exit37

lean_dec.exit37:                                  ; preds = %53, %52, %50, %lean_dec.exit38
  %54 = ptrtoint ptr %10 to i64
  %55 = and i64 %54, 1
  %.not69 = icmp eq i64 %55, 0
  br i1 %.not69, label %56, label %lean_dec.exit36

56:                                               ; preds = %lean_dec.exit37
  %57 = load i32, ptr %10, align 4, !tbaa !8
  %58 = icmp sgt i32 %57, 1
  br i1 %58, label %59, label %61, !prof !11

59:                                               ; preds = %56
  %60 = add nsw i32 %57, -1
  store i32 %60, ptr %10, align 4, !tbaa !8
  br label %lean_dec.exit36

61:                                               ; preds = %56
  %.not.i47 = icmp eq i32 %57, 0
  br i1 %.not.i47, label %lean_dec.exit36, label %62

62:                                               ; preds = %61
  tail call void @lean_dec_ref_cold(ptr noundef nonnull %10) #5
  br label %lean_dec.exit36

lean_dec.exit36:                                  ; preds = %62, %61, %59, %lean_dec.exit37
  %63 = ptrtoint ptr %9 to i64
  %64 = and i64 %63, 1
  %.not70 = icmp eq i64 %64, 0
  br i1 %.not70, label %65, label %lean_dec.exit35

65:                                               ; preds = %lean_dec.exit36
  %66 = load i32, ptr %9, align 4, !tbaa !8
  %67 = icmp sgt i32 %66, 1
  br i1 %67, label %68, label %70, !prof !11

68:                                               ; preds = %65
  %69 = add nsw i32 %66, -1
  store i32 %69, ptr %9, align 4, !tbaa !8
  br label %lean_dec.exit35

70:                                               ; preds = %65
  %.not.i49 = icmp eq i32 %66, 0
  br i1 %.not.i49, label %lean_dec.exit35, label %71

71:                                               ; preds = %70
  tail call void @lean_dec_ref_cold(ptr noundef nonnull %9) #5
  br label %lean_dec.exit35

lean_dec.exit35:                                  ; preds = %71, %70, %68, %lean_dec.exit36
  %72 = ptrtoint ptr %8 to i64
  %73 = and i64 %72, 1
  %.not71 = icmp eq i64 %73, 0
  br i1 %.not71, label %74, label %lean_dec.exit34

74:                                               ; preds = %lean_dec.exit35
  %75 = load i32, ptr %8, align 4, !tbaa !8
  %76 = icmp sgt i32 %75, 1
  br i1 %76, label %77, label %79, !prof !11

77:                                               ; preds = %74
  %78 = add nsw i32 %75, -1
  store i32 %78, ptr %8, align 4, !tbaa !8
  br label %lean_dec.exit34

79:                                               ; preds = %74
  %.not.i51 = icmp eq i32 %75, 0
  br i1 %.not.i51, label %lean_dec.exit34, label %80

80:                                               ; preds = %79
  tail call void @lean_dec_ref_cold(ptr noundef nonnull %8) #5
  br label %lean_dec.exit34

lean_dec.exit34:                                  ; preds = %80, %79, %77, %lean_dec.exit35
  %81 = ptrtoint ptr %7 to i64
  %82 = and i64 %81, 1
  %.not72 = icmp eq i64 %82, 0
  br i1 %.not72, label %83, label %lean_dec.exit33

83:                                               ; preds = %lean_dec.exit34
  %84 = load i32, ptr %7, align 4, !tbaa !8
  %85 = icmp sgt i32 %84, 1
  br i1 %85, label %86, label %88, !prof !11

86:                                               ; preds = %83
  %87 = add nsw i32 %84, -1
  store i32 %87, ptr %7, align 4, !tbaa !8
  br label %lean_dec.exit33

88:                                               ; preds = %83
  %.not.i53 = icmp eq i32 %84, 0
  br i1 %.not.i53, label %lean_dec.exit33, label %89

89:                                               ; preds = %88
  tail call void @lean_dec_ref_cold(ptr noundef nonnull %7) #5
  br label %lean_dec.exit33

lean_dec.exit33:                                  ; preds = %89, %88, %86, %lean_dec.exit34
  %90 = ptrtoint ptr %6 to i64
  %91 = and i64 %90, 1
  %.not73 = icmp eq i64 %91, 0
  br i1 %.not73, label %92, label %lean_dec.exit32

92:                                               ; preds = %lean_dec.exit33
  %93 = load i32, ptr %6, align 4, !tbaa !8
  %94 = icmp sgt i32 %93, 1
  br i1 %94, label %95, label %97, !prof !11

95:                                               ; preds = %92
  %96 = add nsw i32 %93, -1
  store i32 %96, ptr %6, align 4, !tbaa !8
  br label %lean_dec.exit32

97:                                               ; preds = %92
  %.not.i55 = icmp eq i32 %93, 0
  br i1 %.not.i55, label %lean_dec.exit32, label %98

98:                                               ; preds = %97
  tail call void @lean_dec_ref_cold(ptr noundef nonnull %6) #5
  br label %lean_dec.exit32

lean_dec.exit32:                                  ; preds = %98, %97, %95, %lean_dec.exit33
  %99 = ptrtoint ptr %5 to i64
  %100 = and i64 %99, 1
  %.not74 = icmp eq i64 %100, 0
  br i1 %.not74, label %101, label %lean_dec.exit31

101:                                              ; preds = %lean_dec.exit32
  %102 = load i32, ptr %5, align 4, !tbaa !8
  %103 = icmp sgt i32 %102, 1
  br i1 %103, label %104, label %106, !prof !11

104:                                              ; preds = %101
  %105 = add nsw i32 %102, -1
  store i32 %105, ptr %5, align 4, !tbaa !8
  br label %lean_dec.exit31

106:                                              ; preds = %101
  %.not.i57 = icmp eq i32 %102, 0
  br i1 %.not.i57, label %lean_dec.exit31, label %107

107:                                              ; preds = %106
  tail call void @lean_dec_ref_cold(ptr noundef nonnull %5) #5
  br label %lean_dec.exit31

lean_dec.exit31:                                  ; preds = %107, %106, %104, %lean_dec.exit32
  %108 = ptrtoint ptr %4 to i64
  %109 = and i64 %108, 1
  %.not75 = icmp eq i64 %109, 0
  br i1 %.not75, label %110, label %lean_dec.exit30

110:                                              ; preds = %lean_dec.exit31
  %111 = load i32, ptr %4, align 4, !tbaa !8
  %112 = icmp sgt i32 %111, 1
  br i1 %112, label %113, label %115, !prof !11

113:                                              ; preds = %110
  %114 = add nsw i32 %111, -1
  store i32 %114, ptr %4, align 4, !tbaa !8
  br label %lean_dec.exit30

115:                                              ; preds = %110
  %.not.i59 = icmp eq i32 %111, 0
  br i1 %.not.i59, label %lean_dec.exit30, label %116

116:                                              ; preds = %115
  tail call void @lean_dec_ref_cold(ptr noundef nonnull %4) #5
  br label %lean_dec.exit30

lean_dec.exit30:                                  ; preds = %116, %115, %113, %lean_dec.exit31
  %117 = ptrtoint ptr %3 to i64
  %118 = and i64 %117, 1
  %.not76 = icmp eq i64 %118, 0
  br i1 %.not76, label %119, label %lean_dec.exit29

119:                                              ; preds = %lean_dec.exit30
  %120 = load i32, ptr %3, align 4, !tbaa !8
  %121 = icmp sgt i32 %120, 1
  br i1 %121, label %122, label %124, !prof !11

122:                                              ; preds = %119
  %123 = add nsw i32 %120, -1
  store i32 %123, ptr %3, align 4, !tbaa !8
  br label %lean_dec.exit29

124:                                              ; preds = %119
  %.not.i61 = icmp eq i32 %120, 0
  br i1 %.not.i61, label %lean_dec.exit29, label %125

125:                                              ; preds = %124
  tail call void @lean_dec_ref_cold(ptr noundef nonnull %3) #5
  br label %lean_dec.exit29

lean_dec.exit29:                                  ; preds = %125, %124, %122, %lean_dec.exit30
  %126 = ptrtoint ptr %0 to i64
  %127 = and i64 %126, 1
  %.not77 = icmp eq i64 %127, 0
  br i1 %.not77, label %128, label %lean_dec.exit

128:                                              ; preds = %lean_dec.exit29
  %129 = load i32, ptr %0, align 4, !tbaa !8
  %130 = icmp sgt i32 %129, 1
  br i1 %130, label %131, label %133, !prof !11

131:                                              ; preds = %128
  %132 = add nsw i32 %129, -1
  store i32 %132, ptr %0, align 4, !tbaa !8
  br label %lean_dec.exit

133:                                              ; preds = %128
  %.not.i63 = icmp eq i32 %129, 0
  br i1 %.not.i63, label %lean_dec.exit, label %134

134:                                              ; preds = %133
  tail call void @lean_dec_ref_cold(ptr noundef nonnull %0) #5
  br label %lean_dec.exit

lean_dec.exit:                                    ; preds = %134, %133, %131, %lean_dec.exit29
  ret ptr %35
}